target datalayout = "e-m:e-p270:32:32-p271:32:32-p272:64:64-i64:64-i128:128-f80:128-n8:16:32:64-S128"
target triple = "x86_64-pc-linux-gnu"

%struct.ml_dsa_key_st = type { ptr, ptr, ptr, ptr, [32 x i8], [64 x i8], [32 x i8], ptr, ptr, ptr, i32, i32, %struct.vector_st, %struct.vector_st, %struct.vector_st, %struct.vector_st }
%struct.vector_st = type { ptr, i64 }

@.str = private unnamed_addr constant [38 x i8] c"../openssl/crypto/ml_dsa/ml_dsa_key.c\00", align 1

; Function Attrs: nounwind uwtable
define void @ossl_ml_dsa_key_free(ptr noundef %0) #0 {
  %2 = alloca ptr, align 8
  store ptr %0, ptr %2, align 8, !tbaa !3
  %3 = load ptr, ptr %2, align 8, !tbaa !3
  %4 = icmp eq ptr %3, null
  br i1 %4, label %5, label %6

5:                                                ; preds = %1
  br label %15

6:                                                ; preds = %1
  %7 = load ptr, ptr %2, align 8, !tbaa !3
  %8 = getelementptr inbounds nuw %struct.ml_dsa_key_st, ptr %7, i32 0, i32 2
  %9 = load ptr, ptr %8, align 8, !tbaa !31
  call void @EVP_MD_free(ptr noundef %9)
  %10 = load ptr, ptr %2, align 8, !tbaa !3
  %11 = getelementptr inbounds nuw %struct.ml_dsa_key_st, ptr %10, i32 0, i32 3
  %12 = load ptr, ptr %11, align 8, !tbaa !32
  call void @EVP_MD_free(ptr noundef %12)
  %13 = load ptr, ptr %2, align 8, !tbaa !3
  call void @ossl_ml_dsa_key_reset(ptr noundef %13)
  %14 = load ptr, ptr %2, align 8, !tbaa !3
  call void @CRYPTO_free(ptr noundef %14, ptr noundef @.str, i32 noundef 145)
  br label %15

15:                                               ; preds = %6, %5
  ret void
}