; Function Attrs: nounwind uwtable
define void @ossl_ml_dsa_key_free(ptr noundef %0) local_unnamed_addr #1 {
  %2 = icmp eq ptr %0, null
  br i1 %2, label %8, label %3

3:                                                ; preds = %1
  %4 = getelementptr inbounds nuw i8, ptr %0, i64 16
  %5 = load ptr, ptr %4, align 8, !tbaa !24
  tail call void @EVP_MD_free(ptr noundef %5) #9
  %6 = getelementptr inbounds nuw i8, ptr %0, i64 24
  %7 = load ptr, ptr %6, align 8, !tbaa !25
  tail call void @EVP_MD_free(ptr noundef %7) #9
  tail call void @ossl_ml_dsa_key_reset(ptr noundef nonnull %0)
  tail call void @CRYPTO_free(ptr noundef nonnull %0, ptr noundef nonnull @.str, i32 noundef 145) #9
  br label %8

8:                                                ; preds = %1, %3
  ret void
}